target datalayout = "e-m:e-p270:32:32-p271:32:32-p272:64:64-i64:64-i128:128-f80:128-n8:16:32:64-S128"
target triple = "x86_64-pc-linux-gnu"

%struct.KeccakWidth1600_12rounds_SpongeInstanceStruct = type { [200 x i8], i32, i32, i32 }

; Function Attrs: nounwind uwtable
define dso_local i32 @KeccakWidth1600_12rounds_SpongeInitialize(ptr noundef %0, i32 noundef %1, i32 noundef %2) #0 {
  %4 = alloca i32, align 4
  %5 = alloca ptr, align 8
  %6 = alloca i32, align 4
  %7 = alloca i32, align 4
  store ptr %0, ptr %5, align 8
  store i32 %1, ptr %6, align 4
  store i32 %2, ptr %7, align 4
  %8 = load i32, ptr %6, align 4
  %9 = load i32, ptr %7, align 4
  %10 = add i32 %8, %9
  %11 = icmp ne i32 %10, 1600
  br i1 %11, label %12, label %13

12:                                               ; preds = %3
  store i32 1, ptr %4, align 4
  br label %35

13:                                               ; preds = %3
  %14 = load i32, ptr %6, align 4
  %15 = icmp ule i32 %14, 0
  br i1 %15, label %23, label %16

16:                                               ; preds = %13
  %17 = load i32, ptr %6, align 4
  %18 = icmp ugt i32 %17, 1600
  br i1 %18, label %23, label %19

19:                                               ; preds = %16
  %20 = load i32, ptr %6, align 4
  %21 = urem i32 %20, 8
  %22 = icmp ne i32 %21, 0
  br i1 %22, label %23, label %24

23:                                               ; preds = %19, %16, %13
  store i32 1, ptr %4, align 4
  br label %35

24:                                               ; preds = %19
  %25 = load ptr, ptr %5, align 8
  %26 = getelementptr inbounds nuw %struct.KeccakWidth1600_12rounds_SpongeInstanceStruct, ptr %25, i32 0, i32 0
  %27 = getelementptr inbounds [200 x i8], ptr %26, i64 0, i64 0
  call void @KeccakP1600_Initialize(ptr noundef %27)
  %28 = load i32, ptr %6, align 4
  %29 = load ptr, ptr %5, align 8
  %30 = getelementptr inbounds nuw %struct.KeccakWidth1600_12rounds_SpongeInstanceStruct, ptr %29, i32 0, i32 1
  store i32 %28, ptr %30, align 8
  %31 = load ptr, ptr %5, align 8
  %32 = getelementptr inbounds nuw %struct.KeccakWidth1600_12rounds_SpongeInstanceStruct, ptr %31, i32 0, i32 2
  store i32 0, ptr %32, align 4
  %33 = load ptr, ptr %5, align 8
  %34 = getelementptr inbounds nuw %struct.KeccakWidth1600_12rounds_SpongeInstanceStruct, ptr %33, i32 0, i32 3
  store i32 0, ptr %34, align 8
  store i32 0, ptr %4, align 4
  br label %35

35:                                               ; preds = %24, %23, %12
  %36 = load i32, ptr %4, align 4
  ret i32 %36
}